; Function Attrs: mustprogress nofree nounwind willreturn memory(read, inaccessiblemem: none) uwtable
define noundef range(i32 0, 2) i32 @_Z27grpc_auth_json_key_is_validPK18grpc_auth_json_key(ptr noundef readonly %0) local_unnamed_addr #4 {
  %.not = icmp eq ptr %0, null
  br i1 %.not, label %7, label %2

2:                                                ; preds = %1
  %3 = load ptr, ptr %0, align 8, !tbaa !3
  %4 = tail call i32 @strcmp(ptr noundef nonnull dereferenceable(1) %3, ptr noundef nonnull dereferenceable(8) @.str) #29
  %5 = icmp ne i32 %4, 0
  %6 = zext i1 %5 to i32
  br label %7

7:                                                ; preds = %2, %1
  %8 = phi i32 [ 0, %1 ], [ %6, %2 ]
  ret i32 %8
}